; Function Attrs: inlinehint mustprogress nounwind uwtable
define internal fastcc void @_ZN7testing8internal26ParameterizedTestSuiteInfoINS_13TestWithParamIN4absl12log_internal12_GLOBAL__N_123StructuredProtoTestCaseEEEE8TestInfoD2Ev(ptr noundef nonnull align 8 captures(address) dereferenceable(80) %0) unnamed_addr #8 align 2 personality ptr @__gxx_personality_v0 {
  %2 = getelementptr inbounds nuw i8, ptr %0, i64 40
  %3 = load ptr, ptr %2, align 8, !tbaa !20
  %4 = getelementptr inbounds nuw i8, ptr %0, i64 56
  %5 = icmp eq ptr %3, %4
  br i1 %5, label %_ZNKSt7__cxx1112basic_stringIcSt11char_traitsIcESaIcEE11_M_is_localEv.exit.thread.i.i.i, label %_ZNKSt7__cxx1112basic_stringIcSt11char_traitsIcESaIcEE11_M_is_localEv.exit.i.i.i

_ZNKSt7__cxx1112basic_stringIcSt11char_traitsIcESaIcEE11_M_is_localEv.exit.thread.i.i.i: ; preds = %1
  %6 = getelementptr inbounds nuw i8, ptr %0, i64 48
  %7 = load i64, ptr %6, align 8, !tbaa !22
  %8 = icmp ult i64 %7, 16
  tail call void @llvm.assume(i1 %8)
  br label %_ZN7testing8internal12CodeLocationD2Ev.exit

_ZNKSt7__cxx1112basic_stringIcSt11char_traitsIcESaIcEE11_M_is_localEv.exit.i.i.i: ; preds = %1
  %9 = load i64, ptr %4, align 8, !tbaa !24
  %10 = add i64 %9, 1
  tail call void @_ZdlPvm(ptr noundef %3, i64 noundef %10) #32
  br label %_ZN7testing8internal12CodeLocationD2Ev.exit

_ZN7testing8internal12CodeLocationD2Ev.exit:      ; preds = %_ZNKSt7__cxx1112basic_stringIcSt11char_traitsIcESaIcEE11_M_is_localEv.exit.thread.i.i.i, %_ZNKSt7__cxx1112basic_stringIcSt11char_traitsIcESaIcEE11_M_is_localEv.exit.i.i.i
  %11 = getelementptr inbounds nuw i8, ptr %0, i64 32
  %12 = load ptr, ptr %11, align 8, !tbaa !76
  %.not.i = icmp eq ptr %12, null
  br i1 %.not.i, label %_ZNSt10unique_ptrIN7testing8internal19TestMetaFactoryBaseIN4absl12log_internal12_GLOBAL__N_123StructuredProtoTestCaseEEESt14default_deleteIS7_EED2Ev.exit, label %_ZNKSt14default_deleteIN7testing8internal19TestMetaFactoryBaseIN4absl12log_internal12_GLOBAL__N_123StructuredProtoTestCaseEEEEclEPS7_.exit.i

_ZNKSt14default_deleteIN7testing8internal19TestMetaFactoryBaseIN4absl12log_internal12_GLOBAL__N_123StructuredProtoTestCaseEEEEclEPS7_.exit.i: ; preds = %_ZN7testing8internal12CodeLocationD2Ev.exit
  %13 = load ptr, ptr %12, align 8, !tbaa !18
  %14 = getelementptr inbounds nuw i8, ptr %13, i64 8
  %15 = load ptr, ptr %14, align 8
  tail call void %15(ptr noundef nonnull align 8 dereferenceable(8) %12) #30
  br label %_ZNSt10unique_ptrIN7testing8internal19TestMetaFactoryBaseIN4absl12log_internal12_GLOBAL__N_123StructuredProtoTestCaseEEESt14default_deleteIS7_EED2Ev.exit

_ZNSt10unique_ptrIN7testing8internal19TestMetaFactoryBaseIN4absl12log_internal12_GLOBAL__N_123StructuredProtoTestCaseEEESt14default_deleteIS7_EED2Ev.exit: ; preds = %_ZN7testing8internal12CodeLocationD2Ev.exit, %_ZNKSt14default_deleteIN7testing8internal19TestMetaFactoryBaseIN4absl12log_internal12_GLOBAL__N_123StructuredProtoTestCaseEEEEclEPS7_.exit.i
  store ptr null, ptr %11, align 8, !tbaa !76
  %16 = load ptr, ptr %0, align 8, !tbaa !20
  %17 = getelementptr inbounds nuw i8, ptr %0, i64 16
  %18 = icmp eq ptr %16, %17
  br i1 %18, label %_ZNKSt7__cxx1112basic_stringIcSt11char_traitsIcESaIcEE11_M_is_localEv.exit.thread.i.i, label %_ZNKSt7__cxx1112basic_stringIcSt11char_traitsIcESaIcEE11_M_is_localEv.exit.i.i

_ZNKSt7__cxx1112basic_stringIcSt11char_traitsIcESaIcEE11_M_is_localEv.exit.thread.i.i: ; preds = %_ZNSt10unique_ptrIN7testing8internal19TestMetaFactoryBaseIN4absl12log_internal12_GLOBAL__N_123StructuredProtoTestCaseEEESt14default_deleteIS7_EED2Ev.exit
  %19 = getelementptr inbounds nuw i8, ptr %0, i64 8
  %20 = load i64, ptr %19, align 8, !tbaa !22
  %21 = icmp ult i64 %20, 16
  tail call void @llvm.assume(i1 %21)
  br label %_ZNSt7__cxx1112basic_stringIcSt11char_traitsIcESaIcEED2Ev.exit

_ZNKSt7__cxx1112basic_stringIcSt11char_traitsIcESaIcEE11_M_is_localEv.exit.i.i: ; preds = %_ZNSt10unique_ptrIN7testing8internal19TestMetaFactoryBaseIN4absl12log_internal12_GLOBAL__N_123StructuredProtoTestCaseEEESt14default_deleteIS7_EED2Ev.exit
  %22 = load i64, ptr %17, align 8, !tbaa !24
  %23 = add i64 %22, 1
  tail call void @_ZdlPvm(ptr noundef %16, i64 noundef %23) #32
  br label %_ZNSt7__cxx1112basic_stringIcSt11char_traitsIcESaIcEED2Ev.exit

_ZNSt7__cxx1112basic_stringIcSt11char_traitsIcESaIcEED2Ev.exit: ; preds = %_ZNKSt7__cxx1112basic_stringIcSt11char_traitsIcESaIcEE11_M_is_localEv.exit.thread.i.i, %_ZNKSt7__cxx1112basic_stringIcSt11char_traitsIcESaIcEE11_M_is_localEv.exit.i.i
  ret void
}